; Function Attrs: mustprogress uwtable
define dso_local void @_ZN3net18ReliableQuicStream16AddBytesConsumedEm(ptr noundef nonnull align 8 dereferenceable(377) %this, i64 noundef %bytes) local_unnamed_addr #2 align 2 {
entry:
  %read_side_closed_ = getelementptr inbounds i8, ptr %this, i64 256
  %0 = load i8, ptr %read_side_closed_, align 8
  %1 = and i8 %0, 1
  %tobool.not = icmp eq i8 %1, 0
  br i1 %tobool.not, label %if.then, label %if.end

if.then:                                          ; preds = %entry
  %flow_controller_ = getelementptr inbounds i8, ptr %this, i64 272
  tail call void @_ZN3net18QuicFlowController16AddBytesConsumedEm(ptr noundef nonnull align 8 dereferenceable(96) %flow_controller_, i64 noundef %bytes)
  br label %if.end

if.end:                                           ; preds = %if.then, %entry
  %stream_contributes_to_connection_flow_control_ = getelementptr inbounds i8, ptr %this, i64 376
  %2 = load i8, ptr %stream_contributes_to_connection_flow_control_, align 8
  %3 = and i8 %2, 1
  %tobool2.not = icmp eq i8 %3, 0
  br i1 %tobool2.not, label %if.end4, label %if.then3

if.then3:                                         ; preds = %if.end
  %connection_flow_controller_ = getelementptr inbounds i8, ptr %this, i64 368
  %4 = load ptr, ptr %connection_flow_controller_, align 8
  tail call void @_ZN3net18QuicFlowController16AddBytesConsumedEm(ptr noundef nonnull align 8 dereferenceable(96) %4, i64 noundef %bytes)
  br label %if.end4

if.end4:                                          ; preds = %if.then3, %if.end
  ret void
}